target datalayout = "e-m:e-p270:32:32-p271:32:32-p272:64:64-i64:64-i128:128-f80:128-n8:16:32:64-S128"
target triple = "x86_64-pc-linux-gnu"

%struct.git_hash_algo = type { ptr, i32, i64, i64, i64, ptr, ptr, ptr, ptr, ptr, ptr, ptr, ptr, ptr }

; Function Attrs: nounwind uwtable
define dso_local i32 @hash_algo_by_length(i32 noundef %0) #0 {
  %2 = alloca i32, align 4
  %3 = alloca i32, align 4
  %4 = alloca i32, align 4
  %5 = alloca i32, align 4
  store i32 %0, ptr %3, align 4, !tbaa !43
  call void @llvm.lifetime.start.p0(i64 4, ptr %4) #14
  store i32 1, ptr %4, align 4, !tbaa !43
  br label %6

6:                                                ; preds = %21, %1
  %7 = load i32, ptr %4, align 4, !tbaa !43
  %8 = icmp slt i32 %7, 3
  br i1 %8, label %9, label %24

9:                                                ; preds = %6
  %10 = load i32, ptr %3, align 4, !tbaa !43
  %11 = sext i32 %10 to i64
  %12 = load i32, ptr %4, align 4, !tbaa !43
  %13 = sext i32 %12 to i64
  %14 = getelementptr inbounds [3 x %struct.git_hash_algo], ptr @hash_algos, i64 0, i64 %13
  %15 = getelementptr inbounds nuw %struct.git_hash_algo, ptr %14, i32 0, i32 2
  %16 = load i64, ptr %15, align 16, !tbaa !49
  %17 = icmp eq i64 %11, %16
  br i1 %17, label %18, label %20

18:                                               ; preds = %9
  %19 = load i32, ptr %4, align 4, !tbaa !43
  store i32 %19, ptr %2, align 4
  store i32 1, ptr %5, align 4
  br label %25

20:                                               ; preds = %9
  br label %21

21:                                               ; preds = %20
  %22 = load i32, ptr %4, align 4, !tbaa !43
  %23 = add nsw i32 %22, 1
  store i32 %23, ptr %4, align 4, !tbaa !43
  br label %6, !llvm.loop !50

24:                                               ; preds = %6
  store i32 0, ptr %2, align 4
  store i32 1, ptr %5, align 4
  br label %25

25:                                               ; preds = %24, %18
  call void @llvm.lifetime.end.p0(i64 4, ptr %4) #14
  %26 = load i32, ptr %2, align 4
  ret i32 %26
}