; Function Attrs: nofree norecurse nosync nounwind memory(none) uwtable
define dso_local range(i32 0, 3) i32 @hash_algo_by_length(i32 noundef %0) local_unnamed_addr #8 {
  %2 = sext i32 %0 to i64
  br label %3

3:                                                ; preds = %1, %7
  %indvars.iv = phi i64 [ 1, %1 ], [ %indvars.iv.next, %7 ]
  %4 = getelementptr inbounds nuw [3 x %struct.git_hash_algo], ptr @hash_algos, i64 0, i64 %indvars.iv, i32 2
  %5 = load i64, ptr %4, align 16, !tbaa !41
  %6 = icmp eq i64 %5, %2
  br i1 %6, label %.split.loop.exit9, label %7

7:                                                ; preds = %3
  %indvars.iv.next = add nuw nsw i64 %indvars.iv, 1
  %exitcond.not = icmp eq i64 %indvars.iv.next, 3
  br i1 %exitcond.not, label %.split.loop.exit, label %3, !llvm.loop !42

.split.loop.exit9:                                ; preds = %3
  %8 = trunc nuw nsw i64 %indvars.iv to i32
  br label %.split.loop.exit

.split.loop.exit:                                 ; preds = %7, %.split.loop.exit9
  %.06 = phi i32 [ %8, %.split.loop.exit9 ], [ 0, %7 ]
  ret i32 %.06
}